(dp0
S'oui'
p1
(dp2
S'length'
p3
I8
sS'unique'
p4
I00
sS'sortable'
p5
I2
sS'sql'
p6
S'VARCHAR(8) NOT NULL'
p7
sS'notnull'
p8
I01
sS'type'
p9
S'string'
p10
ssS'vendor'
p11
(dp12
g3
I50
sg4
I00
sg5
I3
sg6
S'VARCHAR(50) NOT NULL'
p13
sg8
I01
sg9
g10
ssS'id'
p14
(dp15
g3
I512
sg4
I00
sg5
I1
sg6
S'INTEGER PRIMARY KEY AUTOINCREMENT'
p16
sg8
I00
sg9
g14
ss.