(dp0
S'id'
p1
(dp2
S'length'
p3
I512
sS'unique'
p4
I00
sS'sortable'
p5
I1
sS'sql'
p6
S'INTEGER PRIMARY KEY AUTOINCREMENT'
p7
sS'notnull'
p8
I00
sS'type'
p9
g1
ssS'closed'
p10
(dp11
g3
I512
sg4
I00
sg5
I2
sg6
S'CHAR(1) NOT NULL'
p12
sg8
I01
sg9
S'boolean'
p13
ssS'ts'
p14
(dp15
g3
I512
sg4
I00
sg5
I3
sg6
S'TIMESTAMP'
p16
sg8
I00
sg9
S'datetime'
p17
ss.